target datalayout = "e-m:e-p270:32:32-p271:32:32-p272:64:64-i64:64-i128:128-f80:128-n8:16:32:64-S128"
target triple = "x86_64-pc-linux-gnu"

%struct.rb_vm_struct = type { i64, %struct.anon.5, ptr, i64, %struct.ccan_list_head, i32, i8, i64, ptr, [5 x i64], i64, i64, i64, i64, i64, i64, i64, i64, i64, ptr, ptr, ptr, %struct.anon.9, ptr, i32, %struct.ccan_list_head, %union.pthread_mutex_t, i64, i64, i64, i64, i32, %struct.anon.10, ptr, ptr, ptr, ptr, ptr, ptr, ptr, ptr, i64, [1023 x ptr], %struct.anon.11 }
%struct.anon.5 = type { %struct.ccan_list_head, i32, i32, ptr, ptr, %struct.anon.6, %struct.anon.8 }
%struct.anon.6 = type { %union.pthread_mutex_t, ptr, i32, %union.pthread_cond_t, i8 }
%union.pthread_cond_t = type { %struct.__pthread_cond_s }
%struct.__pthread_cond_s = type { %union.__atomic_wide_counter, %union.__atomic_wide_counter, [2 x i32], [2 x i32], i32, i32, [2 x i32] }
%union.__atomic_wide_counter = type { i64 }
%struct.anon.8 = type { %union.pthread_mutex_t, ptr, i8, %union.pthread_cond_t, i32, i32, i32, i32, %struct.ccan_list_head, i32, %struct.ccan_list_head, %struct.ccan_list_head, %struct.ccan_list_head, i8, %union.pthread_cond_t, %union.pthread_cond_t, i8, i32, i32 }
%struct.anon.9 = type { [65 x i64] }
%struct.ccan_list_head = type { %struct.ccan_list_node }
%struct.ccan_list_node = type { ptr, ptr }
%union.pthread_mutex_t = type { %struct.__pthread_mutex_s }
%struct.__pthread_mutex_s = type { i32, i32, i32, i32, i32, i16, i16, %struct.__pthread_internal_list }
%struct.__pthread_internal_list = type { ptr, ptr }
%struct.anon.10 = type { ptr, ptr }
%struct.anon.11 = type { i64, i64, i64, i64 }
%struct.rb_thread_struct = type { %struct.ccan_list_node, i64, ptr, ptr, ptr, ptr, %struct.rb_thread_sched_item, i8, i32, i64, ptr, i64, i64, i8, i8, i32, ptr, i64, i64, i64, i64, %union.pthread_mutex_t, %struct.rb_unblock_callback, i64, ptr, %struct.ccan_list_head, ptr, %union.anon, i32, i64, ptr, i64, i32, i64, ptr, %struct.rb_ext_config }
%struct.rb_thread_sched_item = type { %struct.anon.1, %struct.rb_thread_sched_waiting, i8, i8, ptr, ptr }
%struct.anon.1 = type { %struct.ccan_list_node, %struct.ccan_list_node, %struct.ccan_list_node, %struct.ccan_list_node, %struct.ccan_list_node }
%struct.rb_thread_sched_waiting = type { i32, %struct.anon.2, %struct.ccan_list_node }
%struct.anon.2 = type { i64, i32, i32 }
%struct.rb_unblock_callback = type { ptr, ptr }
%union.anon = type { %struct.anon.3 }
%struct.anon.3 = type { i64, i64, i32 }
%struct.rb_ext_config = type { i8 }
%struct.rb_execution_context_struct = type { ptr, i64, ptr, ptr, i32, i32, ptr, ptr, ptr, i64, i64, i64, ptr, i64, ptr, i64, i64, i8, i8, i64, %struct.anon.0 }
%struct.anon.0 = type { ptr, ptr, i64, [1 x %struct.__jmp_buf_tag] }
%struct.__jmp_buf_tag = type { [8 x i64], i32, %struct.__sigset_t }
%struct.__sigset_t = type { [16 x i64] }
%struct.rb_ractor_struct = type { %struct.rb_ractor_pub, %struct.rb_ractor_sync, i64, %union.pthread_cond_t, %struct.anon.16, i64, i64, i64, i32, %struct.ccan_list_node, ptr, ptr, i64, i64, i64, i64, i64, i64, ptr }
%struct.rb_ractor_pub = type { i64, i32, %struct.rb_hook_list_struct }
%struct.rb_hook_list_struct = type { ptr, i32, i32, i8, i8 }
%struct.rb_ractor_sync = type { %union.pthread_mutex_t, i8, i8, %struct.rb_ractor_queue, %struct.rb_ractor_queue, %struct.rb_ractor_basket, %struct.ractor_wait }
%struct.rb_ractor_queue = type { ptr, i32, i32, i32, i32, i32 }
%struct.rb_ractor_basket = type { %union.anon.12, i64, %union.anon.13 }
%union.anon.12 = type { i32 }
%union.anon.13 = type { %struct.anon.14 }
%struct.anon.14 = type { i64, i8 }
%struct.ractor_wait = type { i32, i32, ptr }
%struct.anon.16 = type { %struct.ccan_list_head, i32, i32, i32, %struct.rb_thread_sched, ptr, ptr }
%struct.rb_thread_sched = type { %union.pthread_mutex_t, ptr, i8, i8, i8, %struct.ccan_list_head, i32, %struct.ccan_list_node }

@ruby_current_ec = external thread_local global ptr, align 8

; Function Attrs: nounwind sspstrong uwtable
define internal zeroext i1 @vm_need_barrier_waiting(ptr noundef %0) #0 {
  %2 = alloca ptr, align 8
  store ptr %0, ptr %2, align 8, !tbaa !7
  %3 = load ptr, ptr %2, align 8, !tbaa !7
  %4 = getelementptr inbounds nuw %struct.rb_vm_struct, ptr %3, i32 0, i32 1
  %5 = getelementptr inbounds nuw %struct.anon.5, ptr %4, i32 0, i32 6
  %6 = getelementptr inbounds nuw %struct.anon.8, ptr %5, i32 0, i32 16
  %7 = load i8, ptr %6, align 8, !tbaa !89, !range !41, !noundef !42
  %8 = trunc i8 %7 to i1
  ret i1 %8
}

; Function Attrs: inlinehint nounwind sspstrong uwtable
define internal ptr @rb_ec_thread_ptr(ptr noundef %0) #1 {
  %2 = alloca ptr, align 8
  store ptr %0, ptr %2, align 8, !tbaa !43
  %3 = load ptr, ptr %2, align 8, !tbaa !43
  %4 = getelementptr inbounds nuw %struct.rb_execution_context_struct, ptr %3, i32 0, i32 7
  %5 = load ptr, ptr %4, align 8, !tbaa !88
  ret ptr %5
}

; Function Attrs: inlinehint nounwind sspstrong uwtable
define internal ptr @rb_current_execution_context(i1 noundef zeroext %0) #1 {
  %2 = alloca i8, align 1
  %3 = alloca ptr, align 8
  %4 = zext i1 %0 to i8
  store i8 %4, ptr %2, align 1, !tbaa !40
  call void @llvm.lifetime.start.p0(i64 8, ptr %3) #9
  %5 = call align 8 ptr @llvm.threadlocal.address.p0(ptr align 8 @ruby_current_ec)
  %6 = load ptr, ptr %5, align 8, !tbaa !43
  store ptr %6, ptr %3, align 8, !tbaa !43
  %7 = load ptr, ptr %3, align 8, !tbaa !43
  call void @llvm.lifetime.end.p0(i64 8, ptr %3) #9
  ret ptr %7
}

; Function Attrs: nounwind sspstrong uwtable
define internal zeroext i1 @vm_need_barrier(i1 noundef zeroext %0, ptr noundef %1, ptr noundef %2) #0 {
  %4 = alloca i8, align 1
  %5 = alloca ptr, align 8
  %6 = alloca ptr, align 8
  %7 = zext i1 %0 to i8
  store i8 %7, ptr %4, align 1, !tbaa !40
  store ptr %1, ptr %5, align 8, !tbaa !39
  store ptr %2, ptr %6, align 8, !tbaa !7
  %8 = load i8, ptr %4, align 1, !tbaa !40, !range !41, !noundef !42
  %9 = trunc i8 %8 to i1
  br i1 %9, label %20, label %10

10:                                               ; preds = %3
  %11 = load ptr, ptr %5, align 8, !tbaa !39
  %12 = getelementptr inbounds nuw %struct.rb_ractor_struct, ptr %11, i32 0, i32 4
  %13 = getelementptr inbounds nuw %struct.anon.16, ptr %12, i32 0, i32 4
  %14 = getelementptr inbounds nuw %struct.rb_thread_sched, ptr %13, i32 0, i32 1
  %15 = load ptr, ptr %14, align 8, !tbaa !76
  %16 = icmp ne ptr %15, null
  br i1 %16, label %17, label %20

17:                                               ; preds = %10
  %18 = load ptr, ptr %6, align 8, !tbaa !7
  %19 = call zeroext i1 @vm_need_barrier_waiting(ptr noundef %18)
  br label %20

20:                                               ; preds = %17, %10, %3
  %21 = phi i1 [ false, %10 ], [ false, %3 ], [ %19, %17 ]
  ret i1 %21
}

; Function Attrs: nounwind sspstrong uwtable
define internal void @vm_lock_enter(ptr noundef %0, ptr noundef %1, i1 noundef zeroext %2, i1 noundef zeroext %3, ptr noundef %4) #0 {
  %6 = alloca ptr, align 8
  %7 = alloca ptr, align 8
  %8 = alloca i8, align 1
  %9 = alloca i8, align 1
  %10 = alloca ptr, align 8
  %11 = alloca ptr, align 8
  store ptr %0, ptr %6, align 8, !tbaa !39
  store ptr %1, ptr %7, align 8, !tbaa !7
  %12 = zext i1 %2 to i8
  store i8 %12, ptr %8, align 1, !tbaa !40
  %13 = zext i1 %3 to i8
  store i8 %13, ptr %9, align 1, !tbaa !40
  store ptr %4, ptr %10, align 8, !tbaa !37
  %14 = load i8, ptr %8, align 1, !tbaa !40, !range !41, !noundef !42
  %15 = trunc i8 %14 to i1
  br i1 %15, label %16, label %17

16:                                               ; preds = %5
  br label %60

17:                                               ; preds = %5
  %18 = load ptr, ptr %7, align 8, !tbaa !7
  %19 = getelementptr inbounds nuw %struct.rb_vm_struct, ptr %18, i32 0, i32 1
  %20 = getelementptr inbounds nuw %struct.anon.5, ptr %19, i32 0, i32 5
  %21 = getelementptr inbounds nuw %struct.anon.6, ptr %20, i32 0, i32 0
  call void @rb_native_mutex_lock(ptr noundef %21)
  %22 = load i8, ptr %9, align 1, !tbaa !40, !range !41, !noundef !42
  %23 = trunc i8 %22 to i1
  %24 = load ptr, ptr %6, align 8, !tbaa !39
  %25 = load ptr, ptr %7, align 8, !tbaa !7
  %26 = call zeroext i1 @vm_need_barrier(i1 noundef zeroext %23, ptr noundef %24, ptr noundef %25)
  br i1 %26, label %27, label %54

27:                                               ; preds = %17
  call void @llvm.lifetime.start.p0(i64 8, ptr %11) #9
  %28 = call ptr @rb_current_execution_context(i1 noundef zeroext true)
  store ptr %28, ptr %11, align 8, !tbaa !43
  br label %29

29:                                               ; preds = %27
  %30 = load ptr, ptr %11, align 8, !tbaa !43
  %31 = call ptr @rb_ec_thread_ptr(ptr noundef %30)
  %32 = getelementptr inbounds nuw %struct.rb_thread_struct, ptr %31, i32 0, i32 5
  %33 = load ptr, ptr %32, align 8, !tbaa !45
  %34 = getelementptr inbounds nuw %struct.rb_execution_context_struct, ptr %33, i32 0, i32 20
  %35 = getelementptr inbounds nuw %struct.anon.0, ptr %34, i32 0, i32 3
  %36 = getelementptr inbounds [1 x %struct.__jmp_buf_tag], ptr %35, i64 0, i64 0
  %37 = call i32 @_setjmp(ptr noundef %36) #10
  %38 = load ptr, ptr %11, align 8, !tbaa !43
  %39 = call ptr @rb_ec_thread_ptr(ptr noundef %38)
  %40 = getelementptr inbounds nuw %struct.rb_thread_struct, ptr %39, i32 0, i32 5
  %41 = load ptr, ptr %40, align 8, !tbaa !45
  %42 = getelementptr inbounds nuw %struct.rb_execution_context_struct, ptr %41, i32 0, i32 20
  %43 = getelementptr inbounds nuw %struct.anon.0, ptr %42, i32 0, i32 1
  %44 = call ptr asm sideeffect "movq\09%rsp, $0", "=r,~{dirflag},~{fpsr},~{flags}"() #9, !srcloc !59
  store ptr %44, ptr %43, align 8, !tbaa !60
  br label %45

45:                                               ; preds = %29
  br label %46

46:                                               ; preds = %45
  br label %47

47:                                               ; preds = %50, %46
  %48 = load ptr, ptr %7, align 8, !tbaa !7
  %49 = load ptr, ptr %6, align 8, !tbaa !39
  call void @rb_ractor_sched_barrier_join(ptr noundef %48, ptr noundef %49)
  br label %50

50:                                               ; preds = %47
  %51 = load ptr, ptr %7, align 8, !tbaa !7
  %52 = call zeroext i1 @vm_need_barrier_waiting(ptr noundef %51)
  br i1 %52, label %47, label %53, !llvm.loop !67

53:                                               ; preds = %50
  call void @llvm.lifetime.end.p0(i64 8, ptr %11) #9
  br label %54

54:                                               ; preds = %53, %17
  %55 = load ptr, ptr %6, align 8, !tbaa !39
  %56 = load ptr, ptr %7, align 8, !tbaa !7
  %57 = getelementptr inbounds nuw %struct.rb_vm_struct, ptr %56, i32 0, i32 1
  %58 = getelementptr inbounds nuw %struct.anon.5, ptr %57, i32 0, i32 5
  %59 = getelementptr inbounds nuw %struct.anon.6, ptr %58, i32 0, i32 1
  store ptr %55, ptr %59, align 8, !tbaa !12
  br label %60

60:                                               ; preds = %54, %16
  %61 = load ptr, ptr %7, align 8, !tbaa !7
  %62 = getelementptr inbounds nuw %struct.rb_vm_struct, ptr %61, i32 0, i32 1
  %63 = getelementptr inbounds nuw %struct.anon.5, ptr %62, i32 0, i32 5
  %64 = getelementptr inbounds nuw %struct.anon.6, ptr %63, i32 0, i32 2
  %65 = load i32, ptr %64, align 8, !tbaa !69
  %66 = add i32 %65, 1
  store i32 %66, ptr %64, align 8, !tbaa !69
  %67 = load ptr, ptr %7, align 8, !tbaa !7
  %68 = getelementptr inbounds nuw %struct.rb_vm_struct, ptr %67, i32 0, i32 1
  %69 = getelementptr inbounds nuw %struct.anon.5, ptr %68, i32 0, i32 5
  %70 = getelementptr inbounds nuw %struct.anon.6, ptr %69, i32 0, i32 2
  %71 = load i32, ptr %70, align 8, !tbaa !69
  %72 = load ptr, ptr %10, align 8, !tbaa !37
  store i32 %71, ptr %72, align 4, !tbaa !70
  ret void
}