; Function Attrs: nounwind sspstrong uwtable
define internal fastcc void @vm_lock_enter(ptr noundef %0, ptr noundef %1, i1 noundef zeroext %2, i1 noundef zeroext %3, ptr noundef writeonly captures(none) %4) unnamed_addr #2 {
  br i1 %2, label %28, label %6

6:                                                ; preds = %5
  %7 = getelementptr inbounds nuw i8, ptr %1, i64 48
  call void @rb_native_mutex_lock(ptr noundef nonnull %7) #7
  br i1 %3, label %vm_need_barrier.exit.thread, label %8

8:                                                ; preds = %6
  %9 = getelementptr inbounds nuw i8, ptr %0, i64 328
  %10 = load ptr, ptr %9, align 8, !tbaa !63
  %.not.i = icmp eq ptr %10, null
  br i1 %.not.i, label %vm_need_barrier.exit.thread, label %vm_need_barrier.exit

vm_need_barrier.exit:                             ; preds = %8
  %11 = getelementptr i8, ptr %1, i64 456
  %.val.i = load i8, ptr %11, align 8, !tbaa !75, !range !76, !noundef !77
  %12 = trunc nuw i8 %.val.i to i1
  br i1 %12, label %13, label %vm_need_barrier.exit.thread

13:                                               ; preds = %vm_need_barrier.exit
  %14 = call align 8 ptr @llvm.threadlocal.address.p0(ptr align 8 @ruby_current_ec)
  %15 = load ptr, ptr %14, align 8, !tbaa !38
  %16 = getelementptr i8, ptr %15, i64 48
  %.val = load ptr, ptr %16, align 8, !tbaa !40
  %17 = getelementptr inbounds nuw i8, ptr %.val, i64 48
  %18 = load ptr, ptr %17, align 8, !tbaa !78
  %19 = getelementptr inbounds nuw i8, ptr %18, i64 168
  %20 = call i32 @_setjmp(ptr noundef nonnull %19) #8
  %.val14 = load ptr, ptr %16, align 8, !tbaa !40
  %21 = getelementptr inbounds nuw i8, ptr %.val14, i64 48
  %22 = load ptr, ptr %21, align 8, !tbaa !78
  %23 = getelementptr inbounds nuw i8, ptr %22, i64 152
  %24 = call ptr asm sideeffect "movq\09%rsp, $0", "=r,~{dirflag},~{fpsr},~{flags}"() #7, !srcloc !79
  store ptr %24, ptr %23, align 8, !tbaa !80
  br label %25

25:                                               ; preds = %25, %13
  call void @rb_ractor_sched_barrier_join(ptr noundef nonnull %1, ptr noundef %0) #7
  %.val15 = load i8, ptr %11, align 8, !tbaa !75, !range !76, !noundef !77
  %26 = trunc nuw i8 %.val15 to i1
  br i1 %26, label %25, label %vm_need_barrier.exit.thread, !llvm.loop !81

vm_need_barrier.exit.thread:                      ; preds = %25, %6, %8, %vm_need_barrier.exit
  %27 = getelementptr inbounds nuw i8, ptr %1, i64 88
  store ptr %0, ptr %27, align 8, !tbaa !12
  br label %28

28:                                               ; preds = %5, %vm_need_barrier.exit.thread
  %29 = getelementptr inbounds nuw i8, ptr %1, i64 96
  %30 = load i32, ptr %29, align 8, !tbaa !61
  %31 = add i32 %30, 1
  store i32 %31, ptr %29, align 8, !tbaa !61
  store i32 %31, ptr %4, align 4, !tbaa !62
  ret void
}